target datalayout = "e-m:e-p270:32:32-p271:32:32-p272:64:64-i64:64-i128:128-f80:128-n8:16:32:64-S128"
target triple = "x86_64-pc-linux-gnu"

%struct.lean_array_object = type { %struct.lean_object, i64, i64, [0 x ptr] }
%struct.lean_object = type { i32, i32 }
%struct.lean_ctor_object = type { %struct.lean_object, [0 x ptr] }

; Function Attrs: inlinehint nounwind uwtable
define internal ptr @lean_to_array(ptr noundef %0) #0 {
  %2 = alloca ptr, align 8
  store ptr %0, ptr %2, align 8, !tbaa !4
  %3 = load ptr, ptr %2, align 8, !tbaa !4
  ret ptr %3
}

; Function Attrs: inlinehint nounwind uwtable
define internal ptr @lean_to_ctor(ptr noundef %0) #0 {
  %2 = alloca ptr, align 8
  store ptr %0, ptr %2, align 8, !tbaa !4
  %3 = load ptr, ptr %2, align 8, !tbaa !4
  ret ptr %3
}

; Function Attrs: inlinehint nounwind uwtable
define internal i64 @lean_unbox(ptr noundef %0) #0 {
  %2 = alloca ptr, align 8
  store ptr %0, ptr %2, align 8, !tbaa !4
  %3 = load ptr, ptr %2, align 8, !tbaa !4
  %4 = ptrtoint ptr %3 to i64
  %5 = lshr i64 %4, 1
  ret i64 %5
}

; Function Attrs: alwaysinline nounwind uwtable
define internal zeroext i1 @lean_nat_lt(ptr noundef %0, ptr noundef %1) #1 {
  %3 = alloca i1, align 1
  %4 = alloca ptr, align 8
  %5 = alloca ptr, align 8
  store ptr %0, ptr %4, align 8, !tbaa !4
  store ptr %1, ptr %5, align 8, !tbaa !4
  %6 = load ptr, ptr %4, align 8, !tbaa !4
  %7 = call zeroext i1 @lean_is_scalar(ptr noundef %6)
  br i1 %7, label %8, label %11

8:                                                ; preds = %2
  %9 = load ptr, ptr %5, align 8, !tbaa !4
  %10 = call zeroext i1 @lean_is_scalar(ptr noundef %9)
  br label %11

11:                                               ; preds = %8, %2
  %12 = phi i1 [ false, %2 ], [ %10, %8 ]
  %13 = zext i1 %12 to i32
  %14 = sext i32 %13 to i64
  %15 = call i64 @llvm.expect.i64(i64 %14, i64 1)
  %16 = icmp ne i64 %15, 0
  br i1 %16, label %17, label %21

17:                                               ; preds = %11
  %18 = load ptr, ptr %4, align 8, !tbaa !4
  %19 = load ptr, ptr %5, align 8, !tbaa !4
  %20 = icmp ult ptr %18, %19
  store i1 %20, ptr %3, align 1
  br label %25

21:                                               ; preds = %11
  %22 = load ptr, ptr %4, align 8, !tbaa !4
  %23 = load ptr, ptr %5, align 8, !tbaa !4
  %24 = call zeroext i1 @lean_nat_big_lt(ptr noundef %22, ptr noundef %23)
  store i1 %24, ptr %3, align 1
  br label %25

25:                                               ; preds = %21, %17
  %26 = load i1, ptr %3, align 1
  ret i1 %26
}

; Function Attrs: inlinehint nounwind uwtable
define internal ptr @lean_usize_to_nat(i64 noundef %0) #0 {
  %2 = alloca ptr, align 8
  %3 = alloca i64, align 8
  store i64 %0, ptr %3, align 8, !tbaa !10
  %4 = load i64, ptr %3, align 8, !tbaa !10
  %5 = icmp ule i64 %4, 9223372036854775807
  %6 = zext i1 %5 to i32
  %7 = sext i32 %6 to i64
  %8 = call i64 @llvm.expect.i64(i64 %7, i64 1)
  %9 = icmp ne i64 %8, 0
  br i1 %9, label %10, label %13

10:                                               ; preds = %1
  %11 = load i64, ptr %3, align 8, !tbaa !10
  %12 = call ptr @lean_box(i64 noundef %11)
  store ptr %12, ptr %2, align 8
  br label %16

13:                                               ; preds = %1
  %14 = load i64, ptr %3, align 8, !tbaa !10
  %15 = call ptr @lean_big_usize_to_nat(i64 noundef %14)
  store ptr %15, ptr %2, align 8
  br label %16

16:                                               ; preds = %13, %10
  %17 = load ptr, ptr %2, align 8
  ret ptr %17
}

; Function Attrs: inlinehint nounwind uwtable
define internal i64 @lean_array_size(ptr noundef %0) #0 {
  %2 = alloca ptr, align 8
  store ptr %0, ptr %2, align 8, !tbaa !4
  %3 = load ptr, ptr %2, align 8, !tbaa !4
  %4 = call ptr @lean_to_array(ptr noundef %3)
  %5 = getelementptr inbounds nuw %struct.lean_array_object, ptr %4, i32 0, i32 1
  %6 = load i64, ptr %5, align 8, !tbaa !10
  ret i64 %6
}

; Function Attrs: inlinehint nounwind uwtable
define internal ptr @lean_ctor_obj_cptr(ptr noundef %0) #0 {
  %2 = alloca ptr, align 8
  store ptr %0, ptr %2, align 8, !tbaa !4
  %3 = load ptr, ptr %2, align 8, !tbaa !4
  %4 = call ptr @lean_to_ctor(ptr noundef %3)
  %5 = getelementptr inbounds nuw %struct.lean_ctor_object, ptr %4, i32 0, i32 1
  %6 = getelementptr inbounds [0 x ptr], ptr %5, i64 0, i64 0
  ret ptr %6
}

; Function Attrs: alwaysinline nounwind uwtable
define internal void @lean_dec_ref(ptr noundef %0) #1 {
  %2 = alloca ptr, align 8
  store ptr %0, ptr %2, align 8, !tbaa !4
  %3 = load ptr, ptr %2, align 8, !tbaa !4
  %4 = getelementptr inbounds nuw %struct.lean_object, ptr %3, i32 0, i32 0
  %5 = load i32, ptr %4, align 4, !tbaa !17
  %6 = icmp sgt i32 %5, 1
  %7 = zext i1 %6 to i32
  %8 = sext i32 %7 to i64
  %9 = call i64 @llvm.expect.i64(i64 %8, i64 1)
  %10 = icmp ne i64 %9, 0
  br i1 %10, label %11, label %16

11:                                               ; preds = %1
  %12 = load ptr, ptr %2, align 8, !tbaa !4
  %13 = getelementptr inbounds nuw %struct.lean_object, ptr %12, i32 0, i32 0
  %14 = load i32, ptr %13, align 4, !tbaa !17
  %15 = add i32 %14, -1
  store i32 %15, ptr %13, align 4, !tbaa !17
  br label %24

16:                                               ; preds = %1
  %17 = load ptr, ptr %2, align 8, !tbaa !4
  %18 = getelementptr inbounds nuw %struct.lean_object, ptr %17, i32 0, i32 0
  %19 = load i32, ptr %18, align 4, !tbaa !17
  %20 = icmp ne i32 %19, 0
  br i1 %20, label %21, label %23

21:                                               ; preds = %16
  %22 = load ptr, ptr %2, align 8, !tbaa !4
  call void @lean_dec_ref_cold(ptr noundef %22)
  br label %23

23:                                               ; preds = %21, %16
  br label %24

24:                                               ; preds = %23, %11
  ret void
}

; Function Attrs: alwaysinline nounwind uwtable
define internal zeroext i1 @lean_is_scalar(ptr noundef %0) #1 {
  %2 = alloca ptr, align 8
  store ptr %0, ptr %2, align 8, !tbaa !4
  %3 = load ptr, ptr %2, align 8, !tbaa !4
  %4 = ptrtoint ptr %3 to i64
  %5 = and i64 %4, 1
  %6 = icmp eq i64 %5, 1
  ret i1 %6
}

; Function Attrs: inlinehint nounwind uwtable
define internal i64 @lean_usize_of_nat(ptr noundef %0) #0 {
  %2 = alloca ptr, align 8
  store ptr %0, ptr %2, align 8, !tbaa !4
  %3 = load ptr, ptr %2, align 8, !tbaa !4
  %4 = call zeroext i1 @lean_is_scalar(ptr noundef %3)
  br i1 %4, label %5, label %8

5:                                                ; preds = %1
  %6 = load ptr, ptr %2, align 8, !tbaa !4
  %7 = call i64 @lean_unbox(ptr noundef %6)
  br label %11

8:                                                ; preds = %1
  %9 = load ptr, ptr %2, align 8, !tbaa !4
  %10 = call i64 @lean_usize_of_big_nat(ptr noundef %9)
  br label %11

11:                                               ; preds = %8, %5
  %12 = phi i64 [ %7, %5 ], [ %10, %8 ]
  ret i64 %12
}

; Function Attrs: alwaysinline nounwind uwtable
define internal zeroext i8 @lean_nat_dec_lt(ptr noundef %0, ptr noundef %1) #1 {
  %3 = alloca ptr, align 8
  %4 = alloca ptr, align 8
  store ptr %0, ptr %3, align 8, !tbaa !4
  store ptr %1, ptr %4, align 8, !tbaa !4
  %5 = load ptr, ptr %3, align 8, !tbaa !4
  %6 = load ptr, ptr %4, align 8, !tbaa !4
  %7 = call zeroext i1 @lean_nat_lt(ptr noundef %5, ptr noundef %6)
  %8 = zext i1 %7 to i8
  ret i8 %8
}

; Function Attrs: inlinehint nounwind uwtable
define internal ptr @lean_unsigned_to_nat(i32 noundef %0) #0 {
  %2 = alloca i32, align 4
  store i32 %0, ptr %2, align 4, !tbaa !8
  %3 = load i32, ptr %2, align 4, !tbaa !8
  %4 = zext i32 %3 to i64
  %5 = call ptr @lean_usize_to_nat(i64 noundef %4)
  ret ptr %5
}

; Function Attrs: inlinehint nounwind uwtable
define internal ptr @lean_array_get_size(ptr noundef %0) #0 {
  %2 = alloca ptr, align 8
  store ptr %0, ptr %2, align 8, !tbaa !4
  %3 = load ptr, ptr %2, align 8, !tbaa !4
  %4 = call i64 @lean_array_size(ptr noundef %3)
  %5 = call ptr @lean_box(i64 noundef %4)
  ret ptr %5
}

; Function Attrs: inlinehint nounwind uwtable
define internal ptr @lean_ctor_get(ptr noundef %0, i32 noundef %1) #0 {
  %3 = alloca ptr, align 8
  %4 = alloca i32, align 4
  store ptr %0, ptr %3, align 8, !tbaa !4
  store i32 %1, ptr %4, align 4, !tbaa !8
  %5 = load ptr, ptr %3, align 8, !tbaa !4
  %6 = call ptr @lean_ctor_obj_cptr(ptr noundef %5)
  %7 = load i32, ptr %4, align 4, !tbaa !8
  %8 = zext i32 %7 to i64
  %9 = getelementptr inbounds nuw ptr, ptr %6, i64 %8
  %10 = load ptr, ptr %9, align 8, !tbaa !4
  ret ptr %10
}

; Function Attrs: inlinehint nounwind uwtable
define internal ptr @lean_box(i64 noundef %0) #0 {
  %2 = alloca i64, align 8
  store i64 %0, ptr %2, align 8, !tbaa !10
  %3 = load i64, ptr %2, align 8, !tbaa !10
  %4 = shl i64 %3, 1
  %5 = or i64 %4, 1
  %6 = inttoptr i64 %5 to ptr
  ret ptr %6
}

; Function Attrs: alwaysinline nounwind uwtable
define internal void @lean_dec(ptr noundef %0) #1 {
  %2 = alloca ptr, align 8
  store ptr %0, ptr %2, align 8, !tbaa !4
  %3 = load ptr, ptr %2, align 8, !tbaa !4
  %4 = call zeroext i1 @lean_is_scalar(ptr noundef %3)
  br i1 %4, label %7, label %5

5:                                                ; preds = %1
  %6 = load ptr, ptr %2, align 8, !tbaa !4
  call void @lean_dec_ref(ptr noundef %6)
  br label %7

7:                                                ; preds = %5, %1
  ret void
}

; Function Attrs: nounwind uwtable
define zeroext i8 @l_Lean_PersistentArray_anyM___at_Lean_Elab_Term_elabClear___spec__14(ptr noundef %0, ptr noundef %1) #2 {
  %3 = alloca i8, align 1
  %4 = alloca ptr, align 8
  %5 = alloca ptr, align 8
  %6 = alloca ptr, align 8
  %7 = alloca i8, align 1
  %8 = alloca ptr, align 8
  %9 = alloca ptr, align 8
  %10 = alloca ptr, align 8
  %11 = alloca i8, align 1
  %12 = alloca i8, align 1
  %13 = alloca i32, align 4
  %14 = alloca i64, align 8
  %15 = alloca i64, align 8
  %16 = alloca i8, align 1
  store ptr %0, ptr %4, align 8, !tbaa !4
  store ptr %1, ptr %5, align 8, !tbaa !4
  br label %17

17:                                               ; preds = %2
  call void @llvm.lifetime.start.p0(i64 8, ptr %6) #8
  call void @llvm.lifetime.start.p0(i64 1, ptr %7) #8
  %18 = load ptr, ptr %5, align 8, !tbaa !4
  %19 = call ptr @lean_ctor_get(ptr noundef %18, i32 noundef 0)
  store ptr %19, ptr %6, align 8, !tbaa !4
  %20 = load ptr, ptr %4, align 8, !tbaa !4
  %21 = load ptr, ptr %6, align 8, !tbaa !4
  %22 = call zeroext i8 @l_Lean_PersistentArray_anyMAux___at_Lean_Elab_Term_elabClear___spec__15(ptr noundef %20, ptr noundef %21)
  store i8 %22, ptr %7, align 1, !tbaa !16
  %23 = load i8, ptr %7, align 1, !tbaa !16
  %24 = zext i8 %23 to i32
  %25 = icmp eq i32 %24, 0
  br i1 %25, label %26, label %52

26:                                               ; preds = %17
  call void @llvm.lifetime.start.p0(i64 8, ptr %8) #8
  call void @llvm.lifetime.start.p0(i64 8, ptr %9) #8
  call void @llvm.lifetime.start.p0(i64 8, ptr %10) #8
  call void @llvm.lifetime.start.p0(i64 1, ptr %11) #8
  %27 = load ptr, ptr %5, align 8, !tbaa !4
  %28 = call ptr @lean_ctor_get(ptr noundef %27, i32 noundef 1)
  store ptr %28, ptr %8, align 8, !tbaa !4
  %29 = load ptr, ptr %8, align 8, !tbaa !4
  %30 = call ptr @lean_array_get_size(ptr noundef %29)
  store ptr %30, ptr %9, align 8, !tbaa !4
  %31 = call ptr @lean_unsigned_to_nat(i32 noundef 0)
  store ptr %31, ptr %10, align 8, !tbaa !4
  %32 = load ptr, ptr %10, align 8, !tbaa !4
  %33 = load ptr, ptr %9, align 8, !tbaa !4
  %34 = call zeroext i8 @lean_nat_dec_lt(ptr noundef %32, ptr noundef %33)
  store i8 %34, ptr %11, align 1, !tbaa !16
  %35 = load i8, ptr %11, align 1, !tbaa !16
  %36 = zext i8 %35 to i32
  %37 = icmp eq i32 %36, 0
  br i1 %37, label %38, label %41

38:                                               ; preds = %26
  call void @llvm.lifetime.start.p0(i64 1, ptr %12) #8
  %39 = load ptr, ptr %9, align 8, !tbaa !4
  call void @lean_dec(ptr noundef %39)
  store i8 0, ptr %12, align 1, !tbaa !16
  %40 = load i8, ptr %12, align 1, !tbaa !16
  store i8 %40, ptr %3, align 1
  store i32 1, ptr %13, align 4
  call void @llvm.lifetime.end.p0(i64 1, ptr %12) #8
  br label %51

41:                                               ; preds = %26
  call void @llvm.lifetime.start.p0(i64 8, ptr %14) #8
  call void @llvm.lifetime.start.p0(i64 8, ptr %15) #8
  call void @llvm.lifetime.start.p0(i64 1, ptr %16) #8
  store i64 0, ptr %14, align 8, !tbaa !10
  %42 = load ptr, ptr %9, align 8, !tbaa !4
  %43 = call i64 @lean_usize_of_nat(ptr noundef %42)
  store i64 %43, ptr %15, align 8, !tbaa !10
  %44 = load ptr, ptr %9, align 8, !tbaa !4
  call void @lean_dec(ptr noundef %44)
  %45 = load ptr, ptr %4, align 8, !tbaa !4
  %46 = load ptr, ptr %8, align 8, !tbaa !4
  %47 = load i64, ptr %14, align 8, !tbaa !10
  %48 = load i64, ptr %15, align 8, !tbaa !10
  %49 = call zeroext i8 @l_Array_anyMUnsafe_any___at_Lean_Elab_Term_elabClear___spec__18(ptr noundef %45, ptr noundef %46, i64 noundef %47, i64 noundef %48)
  store i8 %49, ptr %16, align 1, !tbaa !16
  %50 = load i8, ptr %16, align 1, !tbaa !16
  store i8 %50, ptr %3, align 1
  store i32 1, ptr %13, align 4
  call void @llvm.lifetime.end.p0(i64 1, ptr %16) #8
  call void @llvm.lifetime.end.p0(i64 8, ptr %15) #8
  call void @llvm.lifetime.end.p0(i64 8, ptr %14) #8
  br label %51

51:                                               ; preds = %41, %38
  call void @llvm.lifetime.end.p0(i64 1, ptr %11) #8
  call void @llvm.lifetime.end.p0(i64 8, ptr %10) #8
  call void @llvm.lifetime.end.p0(i64 8, ptr %9) #8
  call void @llvm.lifetime.end.p0(i64 8, ptr %8) #8
  br label %54

52:                                               ; preds = %17
  %53 = load i8, ptr %7, align 1, !tbaa !16
  store i8 %53, ptr %3, align 1
  store i32 1, ptr %13, align 4
  br label %54

54:                                               ; preds = %52, %51
  call void @llvm.lifetime.end.p0(i64 1, ptr %7) #8
  call void @llvm.lifetime.end.p0(i64 8, ptr %6) #8
  %55 = load i8, ptr %3, align 1
  ret i8 %55
}

; Function Attrs: nounwind uwtable
define ptr @l_Lean_PersistentArray_anyM___at_Lean_Elab_Term_elabClear___spec__14___boxed(ptr noundef %0, ptr noundef %1) #2 {
  %3 = alloca ptr, align 8
  %4 = alloca ptr, align 8
  %5 = alloca i8, align 1
  %6 = alloca ptr, align 8
  store ptr %0, ptr %3, align 8, !tbaa !4
  store ptr %1, ptr %4, align 8, !tbaa !4
  br label %7

7:                                                ; preds = %2
  call void @llvm.lifetime.start.p0(i64 1, ptr %5) #8
  call void @llvm.lifetime.start.p0(i64 8, ptr %6) #8
  %8 = load ptr, ptr %3, align 8, !tbaa !4
  %9 = load ptr, ptr %4, align 8, !tbaa !4
  %10 = call zeroext i8 @l_Lean_PersistentArray_anyM___at_Lean_Elab_Term_elabClear___spec__14(ptr noundef %8, ptr noundef %9)
  store i8 %10, ptr %5, align 1, !tbaa !16
  %11 = load ptr, ptr %4, align 8, !tbaa !4
  call void @lean_dec(ptr noundef %11)
  %12 = load ptr, ptr %3, align 8, !tbaa !4
  call void @lean_dec(ptr noundef %12)
  %13 = load i8, ptr %5, align 1, !tbaa !16
  %14 = zext i8 %13 to i64
  %15 = call ptr @lean_box(i64 noundef %14)
  store ptr %15, ptr %6, align 8, !tbaa !4
  %16 = load ptr, ptr %6, align 8, !tbaa !4
  call void @llvm.lifetime.end.p0(i64 8, ptr %6) #8
  call void @llvm.lifetime.end.p0(i64 1, ptr %5) #8
  ret ptr %16
}